; Function Attrs: mustprogress nofree nounwind willreturn memory(argmem: read) uwtable
define internal noundef zeroext i1 @_ZNK12_GLOBAL__N_121BuildLogRecompactTest10IsPathDeadE11StringPiece(ptr nocapture nonnull readnone align 8 %0, ptr nocapture readonly %1, i64 %2) unnamed_addr #15 align 2 {
  %4 = icmp eq i64 %2, 4
  br i1 %4, label %5, label %_ZNK11StringPieceeqERKS_.exit

5:                                                ; preds = %3
  %bcmp.i = tail call i32 @bcmp(ptr noundef nonnull dereferenceable(4) %1, ptr noundef nonnull dereferenceable(4) @__const._ZN12_GLOBAL__N_124BuildLogTest_Restat_Test8TestBodyEv.out2, i64 4)
  %6 = icmp eq i32 %bcmp.i, 0
  br label %_ZNK11StringPieceeqERKS_.exit

_ZNK11StringPieceeqERKS_.exit:                    ; preds = %3, %5
  %7 = phi i1 [ false, %3 ], [ %6, %5 ]
  ret i1 %7
}